target datalayout = "e-m:e-p270:32:32-p271:32:32-p272:64:64-i64:64-i128:128-f80:128-n8:16:32:64-S128"
target triple = "x86_64-pc-linux-gnu"

%struct.EVP_RC4_HMAC_MD5 = type { %struct.rc4_key_st, %struct.MD5state_st, %struct.MD5state_st, %struct.MD5state_st, i64 }
%struct.rc4_key_st = type { i32, i32, [256 x i32] }
%struct.MD5state_st = type { i32, i32, i32, i32, i32, i32, [16 x i32], i32 }

; Function Attrs: nounwind uwtable
define internal i32 @rc4_hmac_md5_ctrl(ptr noundef %0, i32 noundef %1, i32 noundef %2, ptr noundef %3) #0 {
  %5 = alloca i32, align 4
  %6 = alloca ptr, align 8
  %7 = alloca i32, align 4
  %8 = alloca i32, align 4
  %9 = alloca ptr, align 8
  %10 = alloca ptr, align 8
  %11 = alloca i32, align 4
  %12 = alloca [64 x i8], align 16
  %13 = alloca i32, align 4
  %14 = alloca ptr, align 8
  %15 = alloca i32, align 4
  store ptr %0, ptr %6, align 8, !tbaa !3
  store i32 %1, ptr %7, align 4, !tbaa !10
  store i32 %2, ptr %8, align 4, !tbaa !10
  store ptr %3, ptr %9, align 8, !tbaa !12
  call void @llvm.lifetime.start.p0(i64 8, ptr %10) #5
  %16 = load ptr, ptr %6, align 8, !tbaa !3
  %17 = call ptr @EVP_CIPHER_CTX_get_cipher_data(ptr noundef %16)
  store ptr %17, ptr %10, align 8, !tbaa !12
  %18 = load i32, ptr %7, align 4, !tbaa !10
  switch i32 %18, label %153 [
    i32 23, label %19
    i32 22, label %90
  ]

19:                                               ; preds = %4
  call void @llvm.lifetime.start.p0(i64 4, ptr %11) #5
  call void @llvm.lifetime.start.p0(i64 64, ptr %12) #5
  %20 = getelementptr inbounds [64 x i8], ptr %12, i64 0, i64 0
  call void @llvm.memset.p0.i64(ptr align 16 %20, i8 0, i64 64, i1 false)
  %21 = load i32, ptr %8, align 4, !tbaa !10
  %22 = icmp sgt i32 %21, 64
  br i1 %22, label %23, label %37

23:                                               ; preds = %19
  %24 = load ptr, ptr %10, align 8, !tbaa !12
  %25 = getelementptr inbounds nuw %struct.EVP_RC4_HMAC_MD5, ptr %24, i32 0, i32 1
  %26 = call i32 @MD5_Init(ptr noundef %25)
  %27 = load ptr, ptr %10, align 8, !tbaa !12
  %28 = getelementptr inbounds nuw %struct.EVP_RC4_HMAC_MD5, ptr %27, i32 0, i32 1
  %29 = load ptr, ptr %9, align 8, !tbaa !12
  %30 = load i32, ptr %8, align 4, !tbaa !10
  %31 = sext i32 %30 to i64
  %32 = call i32 @MD5_Update(ptr noundef %28, ptr noundef %29, i64 noundef %31)
  %33 = getelementptr inbounds [64 x i8], ptr %12, i64 0, i64 0
  %34 = load ptr, ptr %10, align 8, !tbaa !12
  %35 = getelementptr inbounds nuw %struct.EVP_RC4_HMAC_MD5, ptr %34, i32 0, i32 1
  %36 = call i32 @MD5_Final(ptr noundef %33, ptr noundef %35)
  br label %42

37:                                               ; preds = %19
  %38 = getelementptr inbounds [64 x i8], ptr %12, i64 0, i64 0
  %39 = load ptr, ptr %9, align 8, !tbaa !12
  %40 = load i32, ptr %8, align 4, !tbaa !10
  %41 = sext i32 %40 to i64
  call void @llvm.memcpy.p0.p0.i64(ptr align 16 %38, ptr align 1 %39, i64 %41, i1 false)
  br label %42

42:                                               ; preds = %37, %23
  store i32 0, ptr %11, align 4, !tbaa !10
  br label %43

43:                                               ; preds = %55, %42
  %44 = load i32, ptr %11, align 4, !tbaa !10
  %45 = zext i32 %44 to i64
  %46 = icmp ult i64 %45, 64
  br i1 %46, label %47, label %58

47:                                               ; preds = %43
  %48 = load i32, ptr %11, align 4, !tbaa !10
  %49 = zext i32 %48 to i64
  %50 = getelementptr inbounds nuw [64 x i8], ptr %12, i64 0, i64 %49
  %51 = load i8, ptr %50, align 1, !tbaa !14
  %52 = zext i8 %51 to i32
  %53 = xor i32 %52, 54
  %54 = trunc i32 %53 to i8
  store i8 %54, ptr %50, align 1, !tbaa !14
  br label %55

55:                                               ; preds = %47
  %56 = load i32, ptr %11, align 4, !tbaa !10
  %57 = add i32 %56, 1
  store i32 %57, ptr %11, align 4, !tbaa !10
  br label %43, !llvm.loop !25

58:                                               ; preds = %43
  %59 = load ptr, ptr %10, align 8, !tbaa !12
  %60 = getelementptr inbounds nuw %struct.EVP_RC4_HMAC_MD5, ptr %59, i32 0, i32 1
  %61 = call i32 @MD5_Init(ptr noundef %60)
  %62 = load ptr, ptr %10, align 8, !tbaa !12
  %63 = getelementptr inbounds nuw %struct.EVP_RC4_HMAC_MD5, ptr %62, i32 0, i32 1
  %64 = getelementptr inbounds [64 x i8], ptr %12, i64 0, i64 0
  %65 = call i32 @MD5_Update(ptr noundef %63, ptr noundef %64, i64 noundef 64)
  store i32 0, ptr %11, align 4, !tbaa !10
  br label %66

66:                                               ; preds = %78, %58
  %67 = load i32, ptr %11, align 4, !tbaa !10
  %68 = zext i32 %67 to i64
  %69 = icmp ult i64 %68, 64
  br i1 %69, label %70, label %81

70:                                               ; preds = %66
  %71 = load i32, ptr %11, align 4, !tbaa !10
  %72 = zext i32 %71 to i64
  %73 = getelementptr inbounds nuw [64 x i8], ptr %12, i64 0, i64 %72
  %74 = load i8, ptr %73, align 1, !tbaa !14
  %75 = zext i8 %74 to i32
  %76 = xor i32 %75, 106
  %77 = trunc i32 %76 to i8
  store i8 %77, ptr %73, align 1, !tbaa !14
  br label %78

78:                                               ; preds = %70
  %79 = load i32, ptr %11, align 4, !tbaa !10
  %80 = add i32 %79, 1
  store i32 %80, ptr %11, align 4, !tbaa !10
  br label %66, !llvm.loop !27

81:                                               ; preds = %66
  %82 = load ptr, ptr %10, align 8, !tbaa !12
  %83 = getelementptr inbounds nuw %struct.EVP_RC4_HMAC_MD5, ptr %82, i32 0, i32 2
  %84 = call i32 @MD5_Init(ptr noundef %83)
  %85 = load ptr, ptr %10, align 8, !tbaa !12
  %86 = getelementptr inbounds nuw %struct.EVP_RC4_HMAC_MD5, ptr %85, i32 0, i32 2
  %87 = getelementptr inbounds [64 x i8], ptr %12, i64 0, i64 0
  %88 = call i32 @MD5_Update(ptr noundef %86, ptr noundef %87, i64 noundef 64)
  %89 = getelementptr inbounds [64 x i8], ptr %12, i64 0, i64 0
  call void @OPENSSL_cleanse(ptr noundef %89, i64 noundef 64)
  store i32 1, ptr %5, align 4
  store i32 1, ptr %13, align 4
  call void @llvm.lifetime.end.p0(i64 64, ptr %12) #5
  call void @llvm.lifetime.end.p0(i64 4, ptr %11) #5
  br label %154

90:                                               ; preds = %4
  call void @llvm.lifetime.start.p0(i64 8, ptr %14) #5
  %91 = load ptr, ptr %9, align 8, !tbaa !12
  store ptr %91, ptr %14, align 8, !tbaa !8
  call void @llvm.lifetime.start.p0(i64 4, ptr %15) #5
  %92 = load i32, ptr %8, align 4, !tbaa !10
  %93 = icmp ne i32 %92, 13
  br i1 %93, label %94, label %95

94:                                               ; preds = %90
  store i32 -1, ptr %5, align 4
  store i32 1, ptr %13, align 4
  br label %152

95:                                               ; preds = %90
  %96 = load ptr, ptr %14, align 8, !tbaa !8
  %97 = load i32, ptr %8, align 4, !tbaa !10
  %98 = sub nsw i32 %97, 2
  %99 = sext i32 %98 to i64
  %100 = getelementptr inbounds i8, ptr %96, i64 %99
  %101 = load i8, ptr %100, align 1, !tbaa !14
  %102 = zext i8 %101 to i32
  %103 = shl i32 %102, 8
  %104 = load ptr, ptr %14, align 8, !tbaa !8
  %105 = load i32, ptr %8, align 4, !tbaa !10
  %106 = sub nsw i32 %105, 1
  %107 = sext i32 %106 to i64
  %108 = getelementptr inbounds i8, ptr %104, i64 %107
  %109 = load i8, ptr %108, align 1, !tbaa !14
  %110 = zext i8 %109 to i32
  %111 = or i32 %103, %110
  store i32 %111, ptr %15, align 4, !tbaa !10
  %112 = load ptr, ptr %6, align 8, !tbaa !3
  %113 = call i32 @EVP_CIPHER_CTX_is_encrypting(ptr noundef %112)
  %114 = icmp ne i32 %113, 0
  br i1 %114, label %137, label %115

115:                                              ; preds = %95
  %116 = load i32, ptr %15, align 4, !tbaa !10
  %117 = icmp ult i32 %116, 16
  br i1 %117, label %118, label %119

118:                                              ; preds = %115
  store i32 -1, ptr %5, align 4
  store i32 1, ptr %13, align 4
  br label %152

119:                                              ; preds = %115
  %120 = load i32, ptr %15, align 4, !tbaa !10
  %121 = sub i32 %120, 16
  store i32 %121, ptr %15, align 4, !tbaa !10
  %122 = load i32, ptr %15, align 4, !tbaa !10
  %123 = lshr i32 %122, 8
  %124 = trunc i32 %123 to i8
  %125 = load ptr, ptr %14, align 8, !tbaa !8
  %126 = load i32, ptr %8, align 4, !tbaa !10
  %127 = sub nsw i32 %126, 2
  %128 = sext i32 %127 to i64
  %129 = getelementptr inbounds i8, ptr %125, i64 %128
  store i8 %124, ptr %129, align 1, !tbaa !14
  %130 = load i32, ptr %15, align 4, !tbaa !10
  %131 = trunc i32 %130 to i8
  %132 = load ptr, ptr %14, align 8, !tbaa !8
  %133 = load i32, ptr %8, align 4, !tbaa !10
  %134 = sub nsw i32 %133, 1
  %135 = sext i32 %134 to i64
  %136 = getelementptr inbounds i8, ptr %132, i64 %135
  store i8 %131, ptr %136, align 1, !tbaa !14
  br label %137

137:                                              ; preds = %119, %95
  %138 = load i32, ptr %15, align 4, !tbaa !10
  %139 = zext i32 %138 to i64
  %140 = load ptr, ptr %10, align 8, !tbaa !12
  %141 = getelementptr inbounds nuw %struct.EVP_RC4_HMAC_MD5, ptr %140, i32 0, i32 4
  store i64 %139, ptr %141, align 8, !tbaa !15
  %142 = load ptr, ptr %10, align 8, !tbaa !12
  %143 = getelementptr inbounds nuw %struct.EVP_RC4_HMAC_MD5, ptr %142, i32 0, i32 3
  %144 = load ptr, ptr %10, align 8, !tbaa !12
  %145 = getelementptr inbounds nuw %struct.EVP_RC4_HMAC_MD5, ptr %144, i32 0, i32 1
  call void @llvm.memcpy.p0.p0.i64(ptr align 8 %143, ptr align 8 %145, i64 92, i1 false), !tbaa.struct !13
  %146 = load ptr, ptr %10, align 8, !tbaa !12
  %147 = getelementptr inbounds nuw %struct.EVP_RC4_HMAC_MD5, ptr %146, i32 0, i32 3
  %148 = load ptr, ptr %14, align 8, !tbaa !8
  %149 = load i32, ptr %8, align 4, !tbaa !10
  %150 = sext i32 %149 to i64
  %151 = call i32 @MD5_Update(ptr noundef %147, ptr noundef %148, i64 noundef %150)
  store i32 16, ptr %5, align 4
  store i32 1, ptr %13, align 4
  br label %152

152:                                              ; preds = %137, %118, %94
  call void @llvm.lifetime.end.p0(i64 4, ptr %15) #5
  call void @llvm.lifetime.end.p0(i64 8, ptr %14) #5
  br label %154

153:                                              ; preds = %4
  store i32 -1, ptr %5, align 4
  store i32 1, ptr %13, align 4
  br label %154

154:                                              ; preds = %153, %152, %81
  call void @llvm.lifetime.end.p0(i64 8, ptr %10) #5
  %155 = load i32, ptr %5, align 4
  ret i32 %155
}