; Function Attrs: nounwind uwtable
define internal range(i32 -1, 17) i32 @rc4_hmac_md5_ctrl(ptr noundef %0, i32 noundef %1, i32 noundef %2, ptr noundef %3) #1 {
  %5 = alloca [64 x i8], align 16
  %6 = tail call ptr @EVP_CIPHER_CTX_get_cipher_data(ptr noundef %0) #6
  switch i32 %1, label %57 [
    i32 23, label %7
    i32 22, label %33
  ]

7:                                                ; preds = %4
  call void @llvm.lifetime.start.p0(i64 64, ptr nonnull %5) #6
  call void @llvm.memset.p0.i64(ptr noundef nonnull align 16 dereferenceable(64) %5, i8 0, i64 64, i1 false)
  %8 = icmp sgt i32 %2, 64
  br i1 %8, label %9, label %15

9:                                                ; preds = %7
  %10 = getelementptr inbounds nuw i8, ptr %6, i64 1032
  %11 = tail call i32 @MD5_Init(ptr noundef nonnull %10) #6
  %12 = zext nneg i32 %2 to i64
  %13 = tail call i32 @MD5_Update(ptr noundef nonnull %10, ptr noundef %3, i64 noundef %12) #6
  %14 = call i32 @MD5_Final(ptr noundef nonnull %5, ptr noundef nonnull %10) #6
  br label %.preheader

15:                                               ; preds = %7
  %16 = sext i32 %2 to i64
  call void @llvm.memcpy.p0.p0.i64(ptr nonnull align 16 %5, ptr align 1 %3, i64 %16, i1 false)
  br label %.preheader

.preheader:                                       ; preds = %15, %9
  br label %17

17:                                               ; preds = %.preheader, %17
  %indvars.iv = phi i64 [ %indvars.iv.next, %17 ], [ 0, %.preheader ]
  %18 = getelementptr inbounds nuw [64 x i8], ptr %5, i64 0, i64 %indvars.iv
  %19 = load i8, ptr %18, align 1, !tbaa !8
  %20 = xor i8 %19, 54
  store i8 %20, ptr %18, align 1, !tbaa !8
  %indvars.iv.next = add nuw nsw i64 %indvars.iv, 1
  %exitcond.not = icmp eq i64 %indvars.iv.next, 64
  br i1 %exitcond.not, label %21, label %17, !llvm.loop !18

21:                                               ; preds = %17
  %22 = getelementptr inbounds nuw i8, ptr %6, i64 1032
  %23 = call i32 @MD5_Init(ptr noundef nonnull %22) #6
  %24 = call i32 @MD5_Update(ptr noundef nonnull %22, ptr noundef nonnull %5, i64 noundef 64) #6
  br label %25

25:                                               ; preds = %21, %25
  %indvars.iv54 = phi i64 [ 0, %21 ], [ %indvars.iv.next55, %25 ]
  %26 = getelementptr inbounds nuw [64 x i8], ptr %5, i64 0, i64 %indvars.iv54
  %27 = load i8, ptr %26, align 1, !tbaa !8
  %28 = xor i8 %27, 106
  store i8 %28, ptr %26, align 1, !tbaa !8
  %indvars.iv.next55 = add nuw nsw i64 %indvars.iv54, 1
  %exitcond57.not = icmp eq i64 %indvars.iv.next55, 64
  br i1 %exitcond57.not, label %29, label %25, !llvm.loop !20

29:                                               ; preds = %25
  %30 = getelementptr inbounds nuw i8, ptr %6, i64 1124
  %31 = call i32 @MD5_Init(ptr noundef nonnull %30) #6
  %32 = call i32 @MD5_Update(ptr noundef nonnull %30, ptr noundef nonnull %5, i64 noundef 64) #6
  call void @OPENSSL_cleanse(ptr noundef nonnull %5, i64 noundef 64) #6
  call void @llvm.lifetime.end.p0(i64 64, ptr nonnull %5) #6
  br label %57

33:                                               ; preds = %4
  %.not = icmp eq i32 %2, 13
  br i1 %.not, label %34, label %57

34:                                               ; preds = %33
  %35 = getelementptr inbounds nuw i8, ptr %3, i64 11
  %36 = load i8, ptr %35, align 1, !tbaa !8
  %37 = zext i8 %36 to i32
  %38 = shl nuw nsw i32 %37, 8
  %39 = getelementptr inbounds nuw i8, ptr %3, i64 12
  %40 = load i8, ptr %39, align 1, !tbaa !8
  %41 = zext i8 %40 to i32
  %42 = or disjoint i32 %38, %41
  %43 = tail call i32 @EVP_CIPHER_CTX_is_encrypting(ptr noundef %0) #6
  %.not50 = icmp eq i32 %43, 0
  br i1 %.not50, label %44, label %51

44:                                               ; preds = %34
  %45 = icmp samesign ult i32 %42, 16
  br i1 %45, label %57, label %46

46:                                               ; preds = %44
  %47 = add nsw i32 %42, -16
  %48 = lshr i32 %47, 8
  %49 = trunc nuw i32 %48 to i8
  store i8 %49, ptr %35, align 1, !tbaa !8
  %50 = trunc i32 %47 to i8
  store i8 %50, ptr %39, align 1, !tbaa !8
  br label %51

51:                                               ; preds = %46, %34
  %.0 = phi i32 [ %42, %34 ], [ %47, %46 ]
  %52 = zext nneg i32 %.0 to i64
  %53 = getelementptr inbounds nuw i8, ptr %6, i64 1312
  store i64 %52, ptr %53, align 8, !tbaa !9
  %54 = getelementptr inbounds nuw i8, ptr %6, i64 1216
  %55 = getelementptr inbounds nuw i8, ptr %6, i64 1032
  tail call void @llvm.memcpy.p0.p0.i64(ptr noundef nonnull align 8 dereferenceable(92) %54, ptr noundef nonnull align 8 dereferenceable(92) %55, i64 92, i1 false), !tbaa.struct !3
  %56 = tail call i32 @MD5_Update(ptr noundef nonnull %54, ptr noundef nonnull %3, i64 noundef 13) #6
  br label %57

57:                                               ; preds = %4, %51, %33, %44, %29
  %.042 = phi i32 [ 1, %29 ], [ 16, %51 ], [ -1, %33 ], [ -1, %44 ], [ -1, %4 ]
  ret i32 %.042
}